target datalayout = "e-m:e-p270:32:32-p271:32:32-p272:64:64-i64:64-i128:128-f80:128-n8:16:32:64-S128"
target triple = "x86_64-pc-linux-gnu"

%class.Block_Array = type { i32, ptr, ptr }
%class.Phase = type { i32, ptr }
%class.Node = type <{ ptr, ptr, ptr, i32, i32, i32, i32, i32, i32, i32, [4 x i8] }>
%class.PhaseCFG = type { %class.Phase, ptr, ptr, %class.Block_List, i32, ptr, ptr, i8, ptr, %class.Block_Array, ptr, double, ptr, ptr }
%class.Block_List = type <{ %class.Block_Array, i32, [4 x i8] }>

; Function Attrs: mustprogress nounwind uwtable
define linkonce_odr hidden noundef ptr @_ZNK11Block_ArrayixEj(ptr noundef nonnull align 8 dereferenceable(24) %0, i32 noundef %1) #1 comdat align 2 {
  %3 = alloca ptr, align 8
  %4 = alloca i32, align 4
  store ptr %0, ptr %3, align 8
  store i32 %1, ptr %4, align 4
  %5 = load ptr, ptr %3, align 8
  %6 = getelementptr inbounds %class.Block_Array, ptr %5, i32 0, i32 2
  %7 = load ptr, ptr %6, align 8
  %8 = load i32, ptr %4, align 4
  %9 = zext i32 %8 to i64
  %10 = getelementptr inbounds ptr, ptr %7, i64 %9
  %11 = load ptr, ptr %10, align 8
  ret ptr %11
}

; Function Attrs: mustprogress nounwind uwtable
define linkonce_odr hidden noundef zeroext i1 @_ZNK4Node11is_MachCallEv(ptr noundef nonnull align 8 dereferenceable(52) %0) #1 comdat align 2 {
  %2 = alloca ptr, align 8
  store ptr %0, ptr %2, align 8
  %3 = load ptr, ptr %2, align 8
  %4 = getelementptr inbounds %class.Node, ptr %3, i32 0, i32 8
  %5 = load i32, ptr %4, align 4
  %6 = and i32 %5, 31
  %7 = icmp eq i32 %6, 30
  ret i1 %7
}

; Function Attrs: mustprogress nounwind uwtable
define linkonce_odr hidden noundef ptr @_ZNK8PhaseCFG18get_block_for_nodeEPK4Node(ptr noundef nonnull align 8 dereferenceable(160) %0, ptr noundef %1) #1 comdat align 2 {
  %3 = alloca ptr, align 8
  %4 = alloca ptr, align 8
  store ptr %0, ptr %3, align 8
  store ptr %1, ptr %4, align 8
  %5 = load ptr, ptr %3, align 8
  %6 = getelementptr inbounds %class.PhaseCFG, ptr %5, i32 0, i32 9
  %7 = load ptr, ptr %4, align 8
  %8 = getelementptr inbounds %class.Node, ptr %7, i32 0, i32 7
  %9 = load i32, ptr %8, align 8
  %10 = call noundef ptr @_ZNK11Block_ArrayixEj(ptr noundef nonnull align 8 dereferenceable(24) %6, i32 noundef %9)
  ret ptr %10
}

; Function Attrs: mustprogress nounwind uwtable
define linkonce_odr hidden noundef ptr @_ZNK4Node8fast_outEPPS_(ptr noundef nonnull align 8 dereferenceable(52) %0, ptr noundef %1) #1 comdat align 2 {
  %3 = alloca ptr, align 8
  %4 = alloca ptr, align 8
  store ptr %0, ptr %3, align 8
  store ptr %1, ptr %4, align 8
  %5 = load ptr, ptr %4, align 8
  %6 = load ptr, ptr %5, align 8
  ret ptr %6
}

; Function Attrs: mustprogress nounwind uwtable
define linkonce_odr hidden noundef ptr @_ZNK4Node9fast_outsERPPS_(ptr noundef nonnull align 8 dereferenceable(52) %0, ptr noundef nonnull align 8 dereferenceable(8) %1) #1 comdat align 2 {
  %3 = alloca ptr, align 8
  %4 = alloca ptr, align 8
  %5 = alloca ptr, align 8
  store ptr %0, ptr %3, align 8
  store ptr %1, ptr %4, align 8
  %6 = load ptr, ptr %3, align 8
  %7 = getelementptr inbounds %class.Node, ptr %6, i32 0, i32 2
  %8 = load ptr, ptr %7, align 8
  store ptr %8, ptr %5, align 8
  %9 = load ptr, ptr %5, align 8
  %10 = getelementptr inbounds %class.Node, ptr %6, i32 0, i32 5
  %11 = load i32, ptr %10, align 8
  %12 = zext i32 %11 to i64
  %13 = getelementptr inbounds ptr, ptr %9, i64 %12
  %14 = load ptr, ptr %4, align 8
  store ptr %13, ptr %14, align 8
  %15 = load ptr, ptr %5, align 8
  ret ptr %15
}

; Function Attrs: mustprogress nounwind uwtable
define hidden void @_ZN8PhaseCFG20needed_for_next_callEP5BlockP4NodeR9VectorSet(ptr noundef nonnull align 8 dereferenceable(160) %0, ptr noundef %1, ptr noundef %2, ptr noundef nonnull align 8 dereferenceable(32) %3) #1 align 2 {
  %5 = alloca ptr, align 8
  %6 = alloca ptr, align 8
  %7 = alloca ptr, align 8
  %8 = alloca ptr, align 8
  %9 = alloca ptr, align 8
  %10 = alloca ptr, align 8
  %11 = alloca ptr, align 8
  %12 = alloca ptr, align 8
  store ptr %0, ptr %5, align 8
  store ptr %1, ptr %6, align 8
  store ptr %2, ptr %7, align 8
  store ptr %3, ptr %8, align 8
  %13 = load ptr, ptr %5, align 8
  store ptr null, ptr %9, align 8
  %14 = load ptr, ptr %7, align 8
  %15 = call noundef ptr @_ZNK4Node9fast_outsERPPS_(ptr noundef nonnull align 8 dereferenceable(52) %14, ptr noundef nonnull align 8 dereferenceable(8) %10)
  store ptr %15, ptr %11, align 8
  br label %16

16:                                               ; preds = %38, %4
  %17 = load ptr, ptr %11, align 8
  %18 = load ptr, ptr %10, align 8
  %19 = icmp ult ptr %17, %18
  br i1 %19, label %20, label %41

20:                                               ; preds = %16
  %21 = load ptr, ptr %7, align 8
  %22 = load ptr, ptr %11, align 8
  %23 = call noundef ptr @_ZNK4Node8fast_outEPPS_(ptr noundef nonnull align 8 dereferenceable(52) %21, ptr noundef %22)
  store ptr %23, ptr %12, align 8
  %24 = load ptr, ptr %12, align 8
  %25 = call noundef ptr @_ZNK8PhaseCFG18get_block_for_nodeEPK4Node(ptr noundef nonnull align 8 dereferenceable(160) %13, ptr noundef %24)
  %26 = load ptr, ptr %6, align 8
  %27 = icmp eq ptr %25, %26
  br i1 %27, label %28, label %37

28:                                               ; preds = %20
  %29 = load ptr, ptr %12, align 8
  %30 = load ptr, ptr %7, align 8
  %31 = icmp ne ptr %29, %30
  br i1 %31, label %32, label %37

32:                                               ; preds = %28
  %33 = load ptr, ptr %12, align 8
  %34 = call noundef zeroext i1 @_ZNK4Node11is_MachCallEv(ptr noundef nonnull align 8 dereferenceable(52) %33)
  br i1 %34, label %35, label %37

35:                                               ; preds = %32
  %36 = load ptr, ptr %12, align 8
  store ptr %36, ptr %9, align 8
  br label %41

37:                                               ; preds = %32, %28, %20
  br label %38

38:                                               ; preds = %37
  %39 = load ptr, ptr %11, align 8
  %40 = getelementptr inbounds ptr, ptr %39, i32 1
  store ptr %40, ptr %11, align 8
  br label %16, !llvm.loop !28

41:                                               ; preds = %35, %16
  %42 = load ptr, ptr %9, align 8
  %43 = icmp eq ptr %42, null
  br i1 %43, label %44, label %45

44:                                               ; preds = %41
  br label %49

45:                                               ; preds = %41
  %46 = load ptr, ptr %6, align 8
  %47 = load ptr, ptr %9, align 8
  %48 = load ptr, ptr %8, align 8
  call void @_ZN8PhaseCFG13set_next_callEP5BlockP4NodeR9VectorSet(ptr noundef nonnull align 8 dereferenceable(160) %13, ptr noundef %46, ptr noundef %47, ptr noundef nonnull align 8 dereferenceable(32) %48)
  br label %49

49:                                               ; preds = %45, %44
  ret void
}