; Function Attrs: mustprogress nounwind uwtable
define hidden void @_ZN8PhaseCFG20needed_for_next_callEP5BlockP4NodeR9VectorSet(ptr nocapture noundef nonnull readonly align 8 dereferenceable(160) %0, ptr noundef %1, ptr noundef readonly %2, ptr noundef nonnull align 8 dereferenceable(32) %3) local_unnamed_addr #0 align 2 {
  %5 = getelementptr inbounds i8, ptr %2, i64 16
  %6 = load ptr, ptr %5, align 8
  %7 = getelementptr inbounds i8, ptr %2, i64 32
  %8 = load i32, ptr %7, align 8
  %9 = zext i32 %8 to i64
  %10 = getelementptr inbounds ptr, ptr %6, i64 %9
  %.not20 = icmp eq i32 %8, 0
  br i1 %.not20, label %.thread, label %.lr.ph

.lr.ph:                                           ; preds = %4
  %11 = getelementptr inbounds i8, ptr %0, i64 120
  %12 = load ptr, ptr %11, align 8
  br label %13

13:                                               ; preds = %.lr.ph, %26
  %.01619 = phi ptr [ %6, %.lr.ph ], [ %27, %26 ]
  %14 = load ptr, ptr %.01619, align 8
  %15 = getelementptr inbounds i8, ptr %14, i64 40
  %16 = load i32, ptr %15, align 8
  %17 = zext i32 %16 to i64
  %18 = getelementptr inbounds ptr, ptr %12, i64 %17
  %19 = load ptr, ptr %18, align 8
  %20 = icmp ne ptr %19, %1
  %.not = icmp eq ptr %14, %2
  %or.cond = or i1 %.not, %20
  br i1 %or.cond, label %26, label %21

21:                                               ; preds = %13
  %22 = getelementptr inbounds i8, ptr %14, i64 44
  %23 = load i32, ptr %22, align 4
  %24 = and i32 %23, 31
  %25 = icmp eq i32 %24, 30
  br i1 %25, label %29, label %26

26:                                               ; preds = %13, %21
  %27 = getelementptr inbounds i8, ptr %.01619, i64 8
  %28 = icmp ult ptr %27, %10
  br i1 %28, label %13, label %.thread, !llvm.loop !30

29:                                               ; preds = %21
  tail call void @_ZN8PhaseCFG13set_next_callEP5BlockP4NodeR9VectorSet(ptr noundef nonnull align 8 dereferenceable(160) %0, ptr noundef %1, ptr noundef nonnull %14, ptr noundef nonnull align 8 dereferenceable(32) %3)
  br label %.thread

.thread:                                          ; preds = %26, %4, %29
  ret void
}